; Function Attrs: mustprogress uwtable
define noundef ptr @_ZNK6icu_7721RuleBasedNumberFormat11findRuleSetERKNS_13UnicodeStringER10UErrorCode(ptr noundef nonnull readonly align 8 captures(none) dereferenceable(456) %0, ptr noundef nonnull align 8 dereferenceable(64) %1, ptr noundef nonnull align 4 captures(none) dereferenceable(4) %2) local_unnamed_addr #3 align 2 {
  %4 = load i32, ptr %2, align 4, !tbaa !19
  %5 = icmp sgt i32 %4, 0
  %6 = getelementptr inbounds nuw i8, ptr %0, i64 64
  %7 = load ptr, ptr %6, align 8
  %.not16 = icmp eq ptr %7, null
  %or.cond = select i1 %5, i1 true, i1 %.not16
  br i1 %or.cond, label %.loopexit, label %.preheader

.preheader:                                       ; preds = %3
  %8 = load ptr, ptr %7, align 8, !tbaa !96
  %.not1729 = icmp eq ptr %8, null
  br i1 %.not1729, label %._crit_edge, label %.lr.ph

.lr.ph:                                           ; preds = %.preheader
  %9 = getelementptr inbounds nuw i8, ptr %1, i64 8
  %10 = getelementptr inbounds nuw i8, ptr %1, i64 12
  %11 = getelementptr inbounds nuw i8, ptr %1, i64 10
  %12 = getelementptr inbounds nuw i8, ptr %1, i64 24
  br label %13

13:                                               ; preds = %.lr.ph, %_ZNK6icu_779NFRuleSet7isNamedERKNS_13UnicodeStringE.exit.thread
  %14 = phi ptr [ %8, %.lr.ph ], [ %42, %_ZNK6icu_779NFRuleSet7isNamedERKNS_13UnicodeStringE.exit.thread ]
  %.01330 = phi ptr [ %7, %.lr.ph ], [ %41, %_ZNK6icu_779NFRuleSet7isNamedERKNS_13UnicodeStringE.exit.thread ]
  %15 = getelementptr inbounds nuw i8, ptr %14, i64 8
  %16 = getelementptr inbounds nuw i8, ptr %14, i64 16
  %17 = load i16, ptr %16, align 8, !tbaa !55
  %18 = and i16 %17, 1
  %.not.i.i = icmp eq i16 %18, 0
  br i1 %.not.i.i, label %22, label %19

19:                                               ; preds = %13
  %20 = load i16, ptr %9, align 8, !tbaa !55
  %21 = and i16 %20, 1
  %.not = icmp eq i16 %21, 0
  br i1 %.not, label %_ZNK6icu_779NFRuleSet7isNamedERKNS_13UnicodeStringE.exit.thread, label %.loopexit

22:                                               ; preds = %13
  %23 = icmp slt i16 %17, 0
  %24 = ashr i16 %17, 5
  %25 = sext i16 %24 to i32
  %26 = getelementptr inbounds nuw i8, ptr %14, i64 20
  %27 = load i32, ptr %26, align 4
  %28 = select i1 %23, i32 %27, i32 %25
  %29 = load i16, ptr %9, align 8, !tbaa !55
  %30 = icmp slt i16 %29, 0
  %31 = ashr i16 %29, 5
  %32 = sext i16 %31 to i32
  %33 = load i32, ptr %10, align 4
  %34 = select i1 %30, i32 %33, i32 %32
  %35 = and i16 %29, 1
  %.not9.i.i = icmp eq i16 %35, 0
  %36 = icmp eq i32 %28, %34
  %or.cond.i.i = and i1 %.not9.i.i, %36
  br i1 %or.cond.i.i, label %_ZNK6icu_779NFRuleSet7isNamedERKNS_13UnicodeStringE.exit, label %_ZNK6icu_779NFRuleSet7isNamedERKNS_13UnicodeStringE.exit.thread

_ZNK6icu_779NFRuleSet7isNamedERKNS_13UnicodeStringE.exit: ; preds = %22
  %37 = and i16 %29, 2
  %.not.i.i.i.i = icmp eq i16 %37, 0
  %38 = load ptr, ptr %12, align 8
  %39 = select i1 %.not.i.i.i.i, ptr %38, ptr %11
  %40 = tail call noundef signext i8 @_ZNK6icu_7713UnicodeString8doEqualsEPKDsi(ptr noundef nonnull align 8 dereferenceable(64) %15, ptr noundef %39, i32 noundef %28)
  %.not33 = icmp eq i8 %40, 0
  br i1 %.not33, label %_ZNK6icu_779NFRuleSet7isNamedERKNS_13UnicodeStringE.exit.thread, label %.loopexit

_ZNK6icu_779NFRuleSet7isNamedERKNS_13UnicodeStringE.exit.thread: ; preds = %19, %22, %_ZNK6icu_779NFRuleSet7isNamedERKNS_13UnicodeStringE.exit
  %41 = getelementptr inbounds nuw i8, ptr %.01330, i64 8
  %42 = load ptr, ptr %41, align 8, !tbaa !96
  %.not17 = icmp eq ptr %42, null
  br i1 %.not17, label %._crit_edge, label %13, !llvm.loop !103

._crit_edge:                                      ; preds = %_ZNK6icu_779NFRuleSet7isNamedERKNS_13UnicodeStringE.exit.thread, %.preheader
  store i32 1, ptr %2, align 4, !tbaa !19
  br label %.loopexit

.loopexit:                                        ; preds = %_ZNK6icu_779NFRuleSet7isNamedERKNS_13UnicodeStringE.exit, %19, %3, %._crit_edge
  %.3 = phi ptr [ null, %._crit_edge ], [ null, %3 ], [ %14, %19 ], [ %14, %_ZNK6icu_779NFRuleSet7isNamedERKNS_13UnicodeStringE.exit ]
  ret ptr %.3
}